; Function Attrs: mustprogress nofree norecurse nosync nounwind willreturn memory(read, inaccessiblemem: none) uwtable
define noundef i32 @_ZN10OpenSubdiv6v3_6_03Far10PatchTable14findPatchArrayENS1_15PatchDescriptorE(ptr nocapture noundef nonnull readonly align 8 dereferenceable(273) %0, ptr nocapture noundef readonly %1) local_unnamed_addr #6 align 2 {
  %3 = getelementptr inbounds nuw i8, ptr %0, i64 8
  %4 = getelementptr inbounds i8, ptr %0, i64 16
  %5 = load ptr, ptr %4, align 8
  %6 = load ptr, ptr %3, align 8
  %7 = ptrtoint ptr %5 to i64
  %8 = ptrtoint ptr %6 to i64
  %9 = sub i64 %7, %8
  %10 = sdiv exact i64 %9, 20
  %11 = trunc i64 %10 to i32
  %12 = icmp sgt i32 %11, 0
  br i1 %12, label %.lr.ph, label %._crit_edge

.lr.ph:                                           ; preds = %2
  %13 = load i32, ptr %1, align 4
  %wide.trip.count = and i64 %10, 2147483647
  br label %14

14:                                               ; preds = %.lr.ph, %18
  %indvars.iv = phi i64 [ 0, %.lr.ph ], [ %indvars.iv.next, %18 ]
  %15 = getelementptr inbounds %"struct.OpenSubdiv::v3_6_0::Far::PatchTable::PatchArray", ptr %6, i64 %indvars.iv
  %16 = load i32, ptr %15, align 4
  %17 = icmp eq i32 %16, %13
  br i1 %17, label %._crit_edge.loopexit.split.loop.exit10, label %18

18:                                               ; preds = %14
  %indvars.iv.next = add nuw nsw i64 %indvars.iv, 1
  %exitcond.not = icmp eq i64 %indvars.iv.next, %wide.trip.count
  br i1 %exitcond.not, label %._crit_edge, label %14, !llvm.loop !33

._crit_edge.loopexit.split.loop.exit10:           ; preds = %14
  %19 = trunc nuw nsw i64 %indvars.iv to i32
  br label %._crit_edge

._crit_edge:                                      ; preds = %18, %._crit_edge.loopexit.split.loop.exit10, %2
  %.05 = phi i32 [ -1, %2 ], [ %19, %._crit_edge.loopexit.split.loop.exit10 ], [ -1, %18 ]
  ret i32 %.05
}